; Function Attrs: nounwind uwtable
define noalias noundef ptr @Saig_ManBmcSupergate(ptr noundef readonly captures(none) %0, i32 noundef %1) local_unnamed_addr #0 {
  %3 = tail call noalias dereferenceable_or_null(16) ptr @malloc(i64 noundef 16) #27
  %4 = getelementptr inbounds nuw i8, ptr %3, i64 4
  store i32 0, ptr %4, align 4, !tbaa !32
  store i32 10, ptr %3, align 8, !tbaa !42
  %5 = tail call noalias dereferenceable_or_null(80) ptr @malloc(i64 noundef 80) #27
  %6 = getelementptr inbounds nuw i8, ptr %3, i64 8
  store ptr %5, ptr %6, align 8, !tbaa !23
  %7 = getelementptr i8, ptr %0, i64 24
  %.val18 = load ptr, ptr %7, align 8, !tbaa !21
  %8 = getelementptr i8, ptr %.val18, i64 8
  %.val18.val = load ptr, ptr %8, align 8, !tbaa !23
  %9 = sext i32 %1 to i64
  %10 = getelementptr inbounds ptr, ptr %.val18.val, i64 %9
  %11 = load ptr, ptr %10, align 8, !tbaa !25
  %12 = getelementptr i8, ptr %11, i64 8
  %.val20 = load ptr, ptr %12, align 8, !tbaa !26
  %13 = ptrtoint ptr %.val20 to i64
  %14 = and i64 %13, 1
  %.not = icmp eq i64 %14, 0
  br i1 %.not, label %Vec_PtrPush.exit, label %15

Vec_PtrPush.exit:                                 ; preds = %2
  store i32 1, ptr %4, align 4, !tbaa !32
  store ptr %.val20, ptr %5, align 8, !tbaa !25
  br label %25

15:                                               ; preds = %2
  %16 = and i64 %13, -2
  %17 = inttoptr i64 %16 to ptr
  %18 = getelementptr i8, ptr %17, i64 24
  %.val = load i64, ptr %18, align 8
  %19 = trunc i64 %.val to i32
  %20 = and i32 %19, 7
  %21 = add nsw i32 %20, -7
  %narrow.i = icmp ult i32 %21, -2
  br i1 %narrow.i, label %Vec_PtrPush.exit28, label %22

Vec_PtrPush.exit28:                               ; preds = %15
  store i32 1, ptr %4, align 4, !tbaa !32
  store ptr %17, ptr %5, align 8, !tbaa !25
  br label %25

22:                                               ; preds = %15
  %23 = getelementptr i8, ptr %17, i64 8
  %.val19 = load ptr, ptr %23, align 8, !tbaa !26
  tail call void @Saig_ManBmcSupergate_rec(ptr noundef %.val19, ptr noundef nonnull %3)
  %24 = getelementptr i8, ptr %17, i64 16
  %.val21 = load ptr, ptr %24, align 8, !tbaa !39
  tail call void @Saig_ManBmcSupergate_rec(ptr noundef %.val21, ptr noundef nonnull %3)
  br label %25

25:                                               ; preds = %22, %Vec_PtrPush.exit28, %Vec_PtrPush.exit
  ret ptr %3
}